target datalayout = "e-m:e-p270:32:32-p271:32:32-p272:64:64-i64:64-i128:128-f80:128-n8:16:32:64-S128"
target triple = "x86_64-pc-linux-gnu"

@blas_cpu_number = external global i32, align 4

; Function Attrs: inlinehint nounwind uwtable
define internal i32 @num_cpu_avail(i32 noundef %0) #2 {
  %2 = alloca i32, align 4
  %3 = alloca i32, align 4
  store i32 %0, ptr %3, align 4, !tbaa !12
  %4 = load i32, ptr @blas_cpu_number, align 4, !tbaa !12
  %5 = icmp eq i32 %4, 1
  br i1 %5, label %6, label %7

6:                                                ; preds = %1
  store i32 1, ptr %2, align 4
  br label %9

7:                                                ; preds = %1
  %8 = load i32, ptr @blas_cpu_number, align 4, !tbaa !12
  store i32 %8, ptr %2, align 4
  br label %9

9:                                                ; preds = %7, %6
  %10 = load i32, ptr %2, align 4
  ret i32 %10
}

; Function Attrs: nounwind uwtable
define double @dasum_k(i64 noundef %0, ptr noundef %1, i64 noundef %2) #0 {
  %4 = alloca i64, align 8
  %5 = alloca ptr, align 8
  %6 = alloca i64, align 8
  %7 = alloca i32, align 4
  %8 = alloca double, align 8
  %9 = alloca double, align 8
  %10 = alloca i32, align 4
  %11 = alloca i32, align 4
  %12 = alloca i32, align 4
  %13 = alloca [256 x i8], align 16
  %14 = alloca ptr, align 8
  store i64 %0, ptr %4, align 8, !tbaa !3
  store ptr %1, ptr %5, align 8, !tbaa !7
  store i64 %2, ptr %6, align 8, !tbaa !3
  call void @llvm.lifetime.start.p0(i64 4, ptr %7) #9
  call void @llvm.lifetime.start.p0(i64 8, ptr %8) #9
  call void @llvm.lifetime.start.p0(i64 8, ptr %9) #9
  store double 0.000000e+00, ptr %9, align 8, !tbaa !10
  call void @llvm.lifetime.start.p0(i64 4, ptr %10) #9
  %15 = call i32 @num_cpu_avail(i32 noundef 1)
  store i32 %15, ptr %10, align 4, !tbaa !12
  %16 = load i64, ptr %4, align 8, !tbaa !3
  %17 = icmp sle i64 %16, 100000
  br i1 %17, label %21, label %18

18:                                               ; preds = %3
  %19 = load i64, ptr %6, align 8, !tbaa !3
  %20 = icmp sle i64 %19, 0
  br i1 %20, label %21, label %22

21:                                               ; preds = %18, %3
  store i32 1, ptr %7, align 4, !tbaa !12
  br label %37

22:                                               ; preds = %18
  %23 = load i32, ptr %10, align 4, !tbaa !12
  %24 = sext i32 %23 to i64
  %25 = load i64, ptr %4, align 8, !tbaa !3
  %26 = sdiv i64 %25, 100000
  %27 = icmp slt i64 %24, %26
  br i1 %27, label %28, label %31

28:                                               ; preds = %22
  %29 = load i32, ptr %10, align 4, !tbaa !12
  %30 = sext i32 %29 to i64
  br label %34

31:                                               ; preds = %22
  %32 = load i64, ptr %4, align 8, !tbaa !3
  %33 = sdiv i64 %32, 100000
  br label %34

34:                                               ; preds = %31, %28
  %35 = phi i64 [ %30, %28 ], [ %33, %31 ]
  %36 = trunc i64 %35 to i32
  store i32 %36, ptr %7, align 4, !tbaa !12
  br label %37

37:                                               ; preds = %34, %21
  %38 = load i32, ptr %7, align 4, !tbaa !12
  %39 = icmp eq i32 %38, 1
  br i1 %39, label %40, label %45

40:                                               ; preds = %37
  %41 = load i64, ptr %4, align 8, !tbaa !3
  %42 = load ptr, ptr %5, align 8, !tbaa !7
  %43 = load i64, ptr %6, align 8, !tbaa !3
  %44 = call double @asum_compute(i64 noundef %41, ptr noundef %42, i64 noundef %43)
  store double %44, ptr %9, align 8, !tbaa !10
  br label %69

45:                                               ; preds = %37
  call void @llvm.lifetime.start.p0(i64 4, ptr %11) #9
  call void @llvm.lifetime.start.p0(i64 4, ptr %12) #9
  call void @llvm.lifetime.start.p0(i64 256, ptr %13) #9
  call void @llvm.lifetime.start.p0(i64 8, ptr %14) #9
  store i32 3, ptr %11, align 4, !tbaa !12
  %46 = load i32, ptr %11, align 4, !tbaa !12
  %47 = load i64, ptr %4, align 8, !tbaa !3
  %48 = load ptr, ptr %5, align 8, !tbaa !7
  %49 = load i64, ptr %6, align 8, !tbaa !3
  %50 = getelementptr inbounds [256 x i8], ptr %13, i64 0, i64 0
  %51 = load i32, ptr %7, align 4, !tbaa !12
  %52 = call i32 @blas_level1_thread_with_return_value(i32 noundef %46, i64 noundef %47, i64 noundef 0, i64 noundef 0, ptr noundef %8, ptr noundef %48, i64 noundef %49, ptr noundef null, i64 noundef 0, ptr noundef %50, i64 noundef 0, ptr noundef @asum_thread_function, i32 noundef %51)
  %53 = getelementptr inbounds [256 x i8], ptr %13, i64 0, i64 0
  store ptr %53, ptr %14, align 8, !tbaa !7
  store i32 0, ptr %12, align 4, !tbaa !12
  br label %54

54:                                               ; preds = %65, %45
  %55 = load i32, ptr %12, align 4, !tbaa !12
  %56 = load i32, ptr %7, align 4, !tbaa !12
  %57 = icmp slt i32 %55, %56
  br i1 %57, label %58, label %68

58:                                               ; preds = %54
  %59 = load ptr, ptr %14, align 8, !tbaa !7
  %60 = load double, ptr %59, align 8, !tbaa !10
  %61 = load double, ptr %9, align 8, !tbaa !10
  %62 = fadd double %61, %60
  store double %62, ptr %9, align 8, !tbaa !10
  %63 = load ptr, ptr %14, align 8, !tbaa !7
  %64 = getelementptr inbounds nuw i8, ptr %63, i64 16
  store ptr %64, ptr %14, align 8, !tbaa !7
  br label %65

65:                                               ; preds = %58
  %66 = load i32, ptr %12, align 4, !tbaa !12
  %67 = add nsw i32 %66, 1
  store i32 %67, ptr %12, align 4, !tbaa !12
  br label %54, !llvm.loop !14

68:                                               ; preds = %54
  call void @llvm.lifetime.end.p0(i64 8, ptr %14) #9
  call void @llvm.lifetime.end.p0(i64 256, ptr %13) #9
  call void @llvm.lifetime.end.p0(i64 4, ptr %12) #9
  call void @llvm.lifetime.end.p0(i64 4, ptr %11) #9
  br label %69

69:                                               ; preds = %68, %40
  %70 = load double, ptr %9, align 8, !tbaa !10
  call void @llvm.lifetime.end.p0(i64 4, ptr %10) #9
  call void @llvm.lifetime.end.p0(i64 8, ptr %9) #9
  call void @llvm.lifetime.end.p0(i64 8, ptr %8) #9
  call void @llvm.lifetime.end.p0(i64 4, ptr %7) #9
  ret double %70
}