; Function Attrs: nounwind uwtable
define double @dasum_k(i64 noundef %0, ptr noundef %1, i64 noundef %2) local_unnamed_addr #0 {
  %4 = alloca double, align 8
  %5 = alloca [256 x i8], align 16
  call void @llvm.lifetime.start.p0(i64 8, ptr nonnull %4) #8
  %6 = icmp slt i64 %0, 100001
  %7 = icmp slt i64 %2, 1
  %or.cond = or i1 %6, %7
  br i1 %or.cond, label %.thread, label %8

8:                                                ; preds = %3
  %9 = load i32, ptr @blas_cpu_number, align 4, !tbaa !3
  %10 = sext i32 %9 to i64
  %11 = udiv i64 %0, 100000
  %12 = tail call i64 @llvm.smin.i64(i64 %11, i64 %10)
  %13 = trunc nsw i64 %12 to i32
  %14 = icmp eq i64 %12, 1
  br i1 %14, label %.thread, label %16

.thread:                                          ; preds = %3, %8
  %15 = tail call fastcc double @asum_compute(i64 noundef %0, ptr noundef %1, i64 noundef %2)
  br label %23

16:                                               ; preds = %8
  call void @llvm.lifetime.start.p0(i64 256, ptr nonnull %5) #8
  %17 = call i32 @blas_level1_thread_with_return_value(i32 noundef 3, i64 noundef %0, i64 noundef 0, i64 noundef 0, ptr noundef nonnull %4, ptr noundef %1, i64 noundef %2, ptr noundef null, i64 noundef 0, ptr noundef nonnull %5, i64 noundef 0, ptr noundef nonnull @asum_thread_function, i32 noundef %13) #8
  %18 = icmp sgt i64 %12, 0
  br i1 %18, label %.lr.ph, label %._crit_edge

.lr.ph:                                           ; preds = %16, %.lr.ph
  %.031 = phi ptr [ %21, %.lr.ph ], [ %5, %16 ]
  %.02230 = phi i32 [ %22, %.lr.ph ], [ 0, %16 ]
  %.129 = phi double [ %20, %.lr.ph ], [ 0.000000e+00, %16 ]
  %19 = load double, ptr %.031, align 8, !tbaa !7
  %20 = fadd double %.129, %19
  %21 = getelementptr inbounds nuw i8, ptr %.031, i64 16
  %22 = add nuw nsw i32 %.02230, 1
  %exitcond.not = icmp eq i32 %22, %13
  br i1 %exitcond.not, label %._crit_edge, label %.lr.ph, !llvm.loop !9

._crit_edge:                                      ; preds = %.lr.ph, %16
  %.1.lcssa = phi double [ 0.000000e+00, %16 ], [ %20, %.lr.ph ]
  call void @llvm.lifetime.end.p0(i64 256, ptr nonnull %5) #8
  br label %23

23:                                               ; preds = %._crit_edge, %.thread
  %.024 = phi double [ %15, %.thread ], [ %.1.lcssa, %._crit_edge ]
  call void @llvm.lifetime.end.p0(i64 8, ptr nonnull %4) #8
  ret double %.024
}